; ModuleID = '41/1069.cpp'
source_filename = "41/1069.cpp"
target datalayout = "e-m:e-p270:32:32-p271:32:32-p272:64:64-i64:64-f80:128-n8:16:32:64-S128"
target triple = "x86_64-pc-linux-gnu"

%"class.std::ios_base::Init" = type { i8 }
%"class.std::basic_ostream" = type { i32 (...)**, %"class.std::basic_ios" }
%"class.std::basic_ios" = type { %"class.std::ios_base", %"class.std::basic_ostream"*, i8, i8, %"class.std::basic_streambuf"*, %"class.std::ctype"*, %"class.std::num_put"*, %"class.std::num_get"* }
%"class.std::ios_base" = type { i32 (...)**, i64, i64, i32, i32, i32, %"struct.std::ios_base::_Callback_list"*, %"struct.std::ios_base::_Words", [8 x %"struct.std::ios_base::_Words"], i32, %"struct.std::ios_base::_Words"*, %"class.std::locale" }
%"struct.std::ios_base::_Callback_list" = type { %"struct.std::ios_base::_Callback_list"*, void (i32, %"class.std::ios_base"*, i32)*, i32, i32 }
%"struct.std::ios_base::_Words" = type { i8*, i64 }
%"class.std::locale" = type { %"class.std::locale::_Impl"* }
%"class.std::locale::_Impl" = type { i32, %"class.std::locale::facet"**, i64, %"class.std::locale::facet"**, i8** }
%"class.std::locale::facet" = type <{ i32 (...)**, i32, [4 x i8] }>
%"class.std::basic_streambuf" = type { i32 (...)**, i8*, i8*, i8*, i8*, i8*, i8*, %"class.std::locale" }
%"class.std::ctype" = type <{ %"class.std::locale::facet.base", [4 x i8], %struct.__locale_struct*, i8, [7 x i8], i32*, i32*, i16*, i8, [256 x i8], [256 x i8], i8, [6 x i8] }>
%"class.std::locale::facet.base" = type <{ i32 (...)**, i32 }>
%struct.__locale_struct = type { [13 x %struct.__locale_data*], i16*, i32*, i32*, [13 x i8*] }
%struct.__locale_data = type opaque
%"class.std::num_put" = type { %"class.std::locale::facet.base", [4 x i8] }
%"class.std::num_get" = type { %"class.std::locale::facet.base", [4 x i8] }

@_ZStL8__ioinit = internal global %"class.std::ios_base::Init" zeroinitializer, align 1
@__dso_handle = external hidden global i8
@_ZSt4cout = external dso_local global %"class.std::basic_ostream", align 8
@.str = private unnamed_addr constant [2 x i8] c" \00", align 1
@llvm.global_ctors = appending global [1 x { i32, void ()*, i8* }] [{ i32, void ()*, i8* } { i32 65535, void ()* @_GLOBAL__sub_I_1069.cpp, i8* null }]

; Function Attrs: noinline uwtable
define internal void @__cxx_global_var_init() #0 section ".text.startup" {
  call void @_ZNSt8ios_base4InitC1Ev(%"class.std::ios_base::Init"* @_ZStL8__ioinit)
  %1 = call i32 @__cxa_atexit(void (i8*)* bitcast (void (%"class.std::ios_base::Init"*)* @_ZNSt8ios_base4InitD1Ev to void (i8*)*), i8* getelementptr inbounds (%"class.std::ios_base::Init", %"class.std::ios_base::Init"* @_ZStL8__ioinit, i32 0, i32 0), i8* @__dso_handle) #3
  ret void
}

declare dso_local void @_ZNSt8ios_base4InitC1Ev(%"class.std::ios_base::Init"*) unnamed_addr #1

; Function Attrs: nounwind
declare dso_local void @_ZNSt8ios_base4InitD1Ev(%"class.std::ios_base::Init"*) unnamed_addr #2

; Function Attrs: nounwind
declare dso_local i32 @__cxa_atexit(void (i8*)*, i8*, i8*) #3

; Function Attrs: noinline norecurse uwtable
define dso_local i32 @main() #4 {
  %1 = alloca i32, align 4
  %2 = alloca i32, align 4
  %3 = alloca i32, align 4
  %4 = alloca i32, align 4
  %5 = alloca i32, align 4
  %6 = alloca i32, align 4
  %7 = alloca i32, align 4
  %8 = alloca i32, align 4
  store i32 0, i32* %1, align 4
  store i32 0, i32* %7, align 4
  store i32 0, i32* %8, align 4
  store i32 5, i32* %2, align 4
  br label %9

9:                                                ; preds = %191, %0
  %10 = load i32, i32* %2, align 4
  %11 = icmp sle i32 %10, 5
  br i1 %11, label %12, label %194

12:                                               ; preds = %9
  store i32 2, i32* %3, align 4
  br label %13

13:                                               ; preds = %183, %12
  %14 = load i32, i32* %3, align 4
  %15 = icmp sle i32 %14, 5
  br i1 %15, label %16, label %186

16:                                               ; preds = %13
  %17 = load i32, i32* %2, align 4
  %18 = load i32, i32* %3, align 4
  %19 = icmp eq i32 %17, %18
  br i1 %19, label %20, label %21

20:                                               ; preds = %16
  br label %183

21:                                               ; preds = %16
  store i32 1, i32* %4, align 4
  br label %22

22:                                               ; preds = %175, %21
  %23 = load i32, i32* %4, align 4
  %24 = icmp sle i32 %23, 5
  br i1 %24, label %25, label %178

25:                                               ; preds = %22
  %26 = load i32, i32* %2, align 4
  %27 = load i32, i32* %4, align 4
  %28 = icmp eq i32 %26, %27
  br i1 %28, label %33, label %29

29:                                               ; preds = %25
  %30 = load i32, i32* %3, align 4
  %31 = load i32, i32* %4, align 4
  %32 = icmp eq i32 %30, %31
  br i1 %32, label %33, label %34

33:                                               ; preds = %29, %25
  br label %175

34:                                               ; preds = %29
  store i32 1, i32* %5, align 4
  br label %35

35:                                               ; preds = %167, %34
  %36 = load i32, i32* %5, align 4
  %37 = icmp sle i32 %36, 5
  br i1 %37, label %38, label %170

38:                                               ; preds = %35
  %39 = load i32, i32* %2, align 4
  %40 = load i32, i32* %5, align 4
  %41 = icmp eq i32 %39, %40
  br i1 %41, label %50, label %42

42:                                               ; preds = %38
  %43 = load i32, i32* %3, align 4
  %44 = load i32, i32* %5, align 4
  %45 = icmp eq i32 %43, %44
  br i1 %45, label %50, label %46

46:                                               ; preds = %42
  %47 = load i32, i32* %4, align 4
  %48 = load i32, i32* %5, align 4
  %49 = icmp eq i32 %47, %48
  br i1 %49, label %50, label %51

50:                                               ; preds = %46, %42, %38
  br label %167

51:                                               ; preds = %46
  store i32 1, i32* %6, align 4
  br label %52

52:                                               ; preds = %159, %51
  %53 = load i32, i32* %6, align 4
  %54 = icmp sle i32 %53, 5
  br i1 %54, label %55, label %162

55:                                               ; preds = %52
  %56 = load i32, i32* %2, align 4
  %57 = load i32, i32* %6, align 4
  %58 = icmp eq i32 %56, %57
  br i1 %58, label %71, label %59

59:                                               ; preds = %55
  %60 = load i32, i32* %3, align 4
  %61 = load i32, i32* %6, align 4
  %62 = icmp eq i32 %60, %61
  br i1 %62, label %71, label %63

63:                                               ; preds = %59
  %64 = load i32, i32* %4, align 4
  %65 = load i32, i32* %6, align 4
  %66 = icmp eq i32 %64, %65
  br i1 %66, label %71, label %67

67:                                               ; preds = %63
  %68 = load i32, i32* %5, align 4
  %69 = load i32, i32* %6, align 4
  %70 = icmp eq i32 %68, %69
  br i1 %70, label %71, label %72

71:                                               ; preds = %67, %63, %59, %55
  br label %159

72:                                               ; preds = %67
  %73 = load i32, i32* %6, align 4
  %74 = icmp eq i32 %73, 2
  br i1 %74, label %78, label %75

75:                                               ; preds = %72
  %76 = load i32, i32* %6, align 4
  %77 = icmp eq i32 %76, 3
  br i1 %77, label %78, label %79

78:                                               ; preds = %75, %72
  br label %159

79:                                               ; preds = %75
  store i32 0, i32* %8, align 4
  %80 = load i32, i32* %2, align 4
  %81 = icmp eq i32 %80, 1
  br i1 %81, label %88, label %82

82:                                               ; preds = %79
  %83 = load i32, i32* %2, align 4
  %84 = icmp eq i32 %83, 2
  br i1 %84, label %85, label %91

85:                                               ; preds = %82
  %86 = load i32, i32* %6, align 4
  %87 = icmp eq i32 %86, 1
  br i1 %87, label %88, label %91

88:                                               ; preds = %85, %79
  %89 = load i32, i32* %8, align 4
  %90 = add nsw i32 %89, 1
  store i32 %90, i32* %8, align 4
  br label %91

91:                                               ; preds = %88, %85, %82
  %92 = load i32, i32* %3, align 4
  %93 = icmp eq i32 %92, 1
  br i1 %93, label %100, label %94

94:                                               ; preds = %91
  %95 = load i32, i32* %3, align 4
  %96 = icmp eq i32 %95, 2
  br i1 %96, label %97, label %103

97:                                               ; preds = %94
  %98 = load i32, i32* %3, align 4
  %99 = icmp eq i32 %98, 2
  br i1 %99, label %100, label %103

100:                                              ; preds = %97, %91
  %101 = load i32, i32* %8, align 4
  %102 = add nsw i32 %101, 1
  store i32 %102, i32* %8, align 4
  br label %103

103:                                              ; preds = %100, %97, %94
  %104 = load i32, i32* %4, align 4
  %105 = icmp eq i32 %104, 1
  br i1 %105, label %112, label %106

106:                                              ; preds = %103
  %107 = load i32, i32* %4, align 4
  %108 = icmp eq i32 %107, 2
  br i1 %108, label %109, label %115

109:                                              ; preds = %106
  %110 = load i32, i32* %2, align 4
  %111 = icmp eq i32 %110, 5
  br i1 %111, label %112, label %115

112:                                              ; preds = %109, %103
  %113 = load i32, i32* %8, align 4
  %114 = add nsw i32 %113, 1
  store i32 %114, i32* %8, align 4
  br label %115

115:                                              ; preds = %112, %109, %106
  %116 = load i32, i32* %5, align 4
  %117 = icmp eq i32 %116, 1
  br i1 %117, label %124, label %118

118:                                              ; preds = %115
  %119 = load i32, i32* %5, align 4
  %120 = icmp eq i32 %119, 2
  br i1 %120, label %121, label %127

121:                                              ; preds = %118
  %122 = load i32, i32* %4, align 4
  %123 = icmp ne i32 %122, 1
  br i1 %123, label %124, label %127

124:                                              ; preds = %121, %115
  %125 = load i32, i32* %8, align 4
  %126 = add nsw i32 %125, 1
  store i32 %126, i32* %8, align 4
  br label %127

127:                                              ; preds = %124, %121, %118
  %128 = load i32, i32* %6, align 4
  %129 = icmp eq i32 %128, 1
  br i1 %129, label %136, label %130

130:                                              ; preds = %127
  %131 = load i32, i32* %6, align 4
  %132 = icmp eq i32 %131, 2
  br i1 %132, label %133, label %139

133:                                              ; preds = %130
  %134 = load i32, i32* %5, align 4
  %135 = icmp eq i32 %134, 1
  br i1 %135, label %136, label %139

136:                                              ; preds = %133, %127
  %137 = load i32, i32* %8, align 4
  %138 = add nsw i32 %137, 1
  store i32 %138, i32* %8, align 4
  br label %139

139:                                              ; preds = %136, %133, %130
  %140 = load i32, i32* %8, align 4
  %141 = icmp eq i32 %140, 2
  br i1 %141, label %142, label %158

142:                                              ; preds = %139
  %143 = load i32, i32* %2, align 4
  %144 = call dereferenceable(272) %"class.std::basic_ostream"* @_ZNSolsEi(%"class.std::basic_ostream"* @_ZSt4cout, i32 %143)
  %145 = call dereferenceable(272) %"class.std::basic_ostream"* @_ZStlsISt11char_traitsIcEERSt13basic_ostreamIcT_ES5_PKc(%"class.std::basic_ostream"* dereferenceable(272) %144, i8* getelementptr inbounds ([2 x i8], [2 x i8]* @.str, i64 0, i64 0))
  %146 = load i32, i32* %3, align 4
  %147 = call dereferenceable(272) %"class.std::basic_ostream"* @_ZNSolsEi(%"class.std::basic_ostream"* %145, i32 %146)
  %148 = call dereferenceable(272) %"class.std::basic_ostream"* @_ZStlsISt11char_traitsIcEERSt13basic_ostreamIcT_ES5_PKc(%"class.std::basic_ostream"* dereferenceable(272) %147, i8* getelementptr inbounds ([2 x i8], [2 x i8]* @.str, i64 0, i64 0))
  %149 = load i32, i32* %4, align 4
  %150 = call dereferenceable(272) %"class.std::basic_ostream"* @_ZNSolsEi(%"class.std::basic_ostream"* %148, i32 %149)
  %151 = call dereferenceable(272) %"class.std::basic_ostream"* @_ZStlsISt11char_traitsIcEERSt13basic_ostreamIcT_ES5_PKc(%"class.std::basic_ostream"* dereferenceable(272) %150, i8* getelementptr inbounds ([2 x i8], [2 x i8]* @.str, i64 0, i64 0))
  %152 = load i32, i32* %5, align 4
  %153 = call dereferenceable(272) %"class.std::basic_ostream"* @_ZNSolsEi(%"class.std::basic_ostream"* %151, i32 %152)
  %154 = call dereferenceable(272) %"class.std::basic_ostream"* @_ZStlsISt11char_traitsIcEERSt13basic_ostreamIcT_ES5_PKc(%"class.std::basic_ostream"* dereferenceable(272) %153, i8* getelementptr inbounds ([2 x i8], [2 x i8]* @.str, i64 0, i64 0))
  %155 = load i32, i32* %6, align 4
  %156 = call dereferenceable(272) %"class.std::basic_ostream"* @_ZNSolsEi(%"class.std::basic_ostream"* %154, i32 %155)
  %157 = call dereferenceable(272) %"class.std::basic_ostream"* @_ZNSolsEPFRSoS_E(%"class.std::basic_ostream"* %156, %"class.std::basic_ostream"* (%"class.std::basic_ostream"*)* @_ZSt4endlIcSt11char_traitsIcEERSt13basic_ostreamIT_T0_ES6_)
  store i32 1, i32* %7, align 4
  br label %162

158:                                              ; preds = %139
  br label %159

159:                                              ; preds = %158, %78, %71
  %160 = load i32, i32* %6, align 4
  %161 = add nsw i32 %160, 1
  store i32 %161, i32* %6, align 4
  br label %52

162:                                              ; preds = %142, %52
  %163 = load i32, i32* %7, align 4
  %164 = icmp eq i32 %163, 1
  br i1 %164, label %165, label %166

165:                                              ; preds = %162
  br label %170

166:                                              ; preds = %162
  br label %167

167:                                              ; preds = %166, %50
  %168 = load i32, i32* %5, align 4
  %169 = add nsw i32 %168, 1
  store i32 %169, i32* %5, align 4
  br label %35

170:                                              ; preds = %165, %35
  %171 = load i32, i32* %7, align 4
  %172 = icmp eq i32 %171, 1
  br i1 %172, label %173, label %174

173:                                              ; preds = %170
  br label %178

174:                                              ; preds = %170
  br label %175

175:                                              ; preds = %174, %33
  %176 = load i32, i32* %4, align 4
  %177 = add nsw i32 %176, 1
  store i32 %177, i32* %4, align 4
  br label %22

178:                                              ; preds = %173, %22
  %179 = load i32, i32* %7, align 4
  %180 = icmp eq i32 %179, 1
  br i1 %180, label %181, label %182

181:                                              ; preds = %178
  br label %186

182:                                              ; preds = %178
  br label %183

183:                                              ; preds = %182, %20
  %184 = load i32, i32* %3, align 4
  %185 = add nsw i32 %184, 1
  store i32 %185, i32* %3, align 4
  br label %13

186:                                              ; preds = %181, %13
  %187 = load i32, i32* %7, align 4
  %188 = icmp eq i32 %187, 1
  br i1 %188, label %189, label %190

189:                                              ; preds = %186
  br label %194

190:                                              ; preds = %186
  br label %191

191:                                              ; preds = %190
  %192 = load i32, i32* %2, align 4
  %193 = add nsw i32 %192, 1
  store i32 %193, i32* %2, align 4
  br label %9

194:                                              ; preds = %189, %9
  ret i32 0
}

declare dso_local dereferenceable(272) %"class.std::basic_ostream"* @_ZStlsISt11char_traitsIcEERSt13basic_ostreamIcT_ES5_PKc(%"class.std::basic_ostream"* dereferenceable(272), i8*) #1

declare dso_local dereferenceable(272) %"class.std::basic_ostream"* @_ZNSolsEi(%"class.std::basic_ostream"*, i32) #1

declare dso_local dereferenceable(272) %"class.std::basic_ostream"* @_ZNSolsEPFRSoS_E(%"class.std::basic_ostream"*, %"class.std::basic_ostream"* (%"class.std::basic_ostream"*)*) #1

declare dso_local dereferenceable(272) %"class.std::basic_ostream"* @_ZSt4endlIcSt11char_traitsIcEERSt13basic_ostreamIT_T0_ES6_(%"class.std::basic_ostream"* dereferenceable(272)) #1

; Function Attrs: noinline uwtable
define internal void @_GLOBAL__sub_I_1069.cpp() #0 section ".text.startup" {
  call void @__cxx_global_var_init()
  ret void
}


!llvm.module.flags = !{!0}
!llvm.ident = !{!1}

!0 = !{i32 1, !"wchar_size", i32 4}
!1 = !{!"clang version 10.0.0-4ubuntu1 "}
